target datalayout = "e-m:e-p270:32:32-p271:32:32-p272:64:64-i64:64-i128:128-f80:128-n8:16:32:64-S128"
target triple = "x86_64-pc-linux-gnu"

; Function Attrs: nounwind uwtable
define void @nk_input_char(ptr noundef %0, i8 noundef signext %1) #0 {
  %3 = alloca ptr, align 8
  %4 = alloca i8, align 1
  %5 = alloca [4 x i8], align 1
  %6 = alloca i32, align 4
  store ptr %0, ptr %3, align 8, !tbaa !372
  store i8 %1, ptr %4, align 1, !tbaa !28
  call void @llvm.lifetime.start.p0(i64 4, ptr %5) #10
  %7 = load ptr, ptr %3, align 8, !tbaa !372
  %8 = icmp ne ptr %7, null
  br i1 %8, label %10, label %9

9:                                                ; preds = %2
  store i32 1, ptr %6, align 4
  br label %15

10:                                               ; preds = %2
  %11 = load i8, ptr %4, align 1, !tbaa !28
  %12 = getelementptr inbounds [4 x i8], ptr %5, i64 0, i64 0
  store i8 %11, ptr %12, align 1, !tbaa !28
  %13 = load ptr, ptr %3, align 8, !tbaa !372
  %14 = getelementptr inbounds [4 x i8], ptr %5, i64 0, i64 0
  call void @nk_input_glyph(ptr noundef %13, ptr noundef %14)
  store i32 0, ptr %6, align 4
  br label %15

15:                                               ; preds = %10, %9
  call void @llvm.lifetime.end.p0(i64 4, ptr %5) #10
  %16 = load i32, ptr %6, align 4
  switch i32 %16, label %18 [
    i32 0, label %17
    i32 1, label %17
  ]

17:                                               ; preds = %15, %15
  ret void

18:                                               ; preds = %15
  unreachable
}