; Function Attrs: nofree norecurse nosync nounwind memory(argmem: readwrite) uwtable
define void @nk_input_char(ptr noundef captures(address_is_null) %0, i8 noundef signext %1) local_unnamed_addr #8 {
  %3 = alloca [4 x i8], align 1
  call void @llvm.lifetime.start.p0(i64 4, ptr nonnull %3) #51
  %.not = icmp eq ptr %0, null
  br i1 %.not, label %5, label %4

4:                                                ; preds = %2
  store i8 %1, ptr %3, align 1, !tbaa !9
  call void @nk_input_glyph(ptr noundef nonnull %0, ptr noundef nonnull %3)
  br label %5

5:                                                ; preds = %2, %4
  call void @llvm.lifetime.end.p0(i64 4, ptr nonnull %3) #51
  ret void
}